Certificate:
    Data:
        Version: 3 (0x2)
        Serial Number: 3 (0x3)
    Signature Algorithm: sha256WithRSAEncryption
        Issuer: C=IT, ST=Italy, L=Torino, O=HBR, OU=MyOrganizationalUnit, CN=OpenVPN-CA/name=EasyRSA/emailAddress=cesare.pec@gmail.com
        Validity
            Not Before: Mar 21 14:21:30 2018 GMT
            Not After : Mar 18 14:21:30 2028 GMT
        Subject: C=IT, ST=Italy, L=Torino, O=HBR, OU=MyOrganizationalUnit, CN=client2/name=EasyRSA/emailAddress=cesare.pec@gmail.com
        Subject Public Key Info:
            Public Key Algorithm: rsaEncryption
                Public-Key: (2048 bit)
                Modulus:
                    00:d6:f8:53:cb:be:0c:b4:61:2e:4d:96:78:f9:9a:
                    57:c0:df:bc:57:66:e4:b9:90:f5:6d:ea:16:e8:7b:
                    b1:9c:5c:3b:c8:fd:a2:93:ea:a8:8e:6b:3e:db:ef:
                    c5:a5:e4:37:62:72:c5:05:5c:ef:94:1c:ab:e9:9f:
                    f6:3d:74:2b:03:0d:9d:cc:25:82:82:9b:21:0f:e6:
                    e2:4e:0a:17:77:29:33:85:15:32:ab:d1:bb:28:ed:
                    70:18:08:20:54:d1:4f:c2:aa:1b:a2:90:7f:ad:9b:
                    ea:c6:7d:01:b1:c1:94:47:d5:74:4f:a3:99:3c:14:
                    ef:b5:9a:5f:98:d9:f9:5d:30:68:5b:72:a5:7b:06:
                    09:4c:aa:19:65:63:39:21:a8:33:0d:81:2d:0c:bd:
                    1b:d5:69:7d:11:f8:9a:cc:60:16:37:7f:54:22:da:
                    1a:c0:dc:c0:3f:6b:00:34:3b:c1:a9:19:8b:7c:17:
                    aa:fd:ef:5f:cf:d1:8b:36:56:0c:47:33:f0:2e:1c:
                    9b:81:bc:95:00:82:34:d3:13:25:2f:0b:b9:33:ee:
                    5a:b9:f7:c6:bf:6a:bf:00:ec:7a:a6:c8:07:51:18:
                    60:47:fb:a7:45:45:dc:d4:fd:9d:f0:33:79:d6:f1:
                    2f:a1:9d:c2:2b:6d:c2:25:93:cb:7a:a1:d7:ae:22:
                    90:ed
                Exponent: 65537 (0x10001)
        X509v3 extensions:
            X509v3 Basic Constraints: 
                CA:FALSE
            Netscape Comment: 
                Easy-RSA Generated Certificate
            X509v3 Subject Key Identifier: 
                A7:62:2F:3E:46:2C:BE:E7:12:1E:27:D9:4B:41:E6:65:8F:72:2C:62
            X509v3 Authority Key Identifier: 
                keyid:D4:29:52:CD:CB:27:CE:CF:E2:F3:32:49:FC:25:12:17:7C:13:BA:C4
                DirName:/C=IT/ST=Italy/L=Torino/O=HBR/OU=MyOrganizationalUnit/CN=OpenVPN-CA/name=EasyRSA/emailAddress=cesare.pec@gmail.com
                serial:B8:06:CD:C2:71:2B:F4:60

            X509v3 Extended Key Usage: 
                TLS Web Client Authentication
            X509v3 Key Usage: 
                Digital Signature
            X509v3 Subject Alternative Name: 
                DNS:client2
    Signature Algorithm: sha256WithRSAEncryption
         c4:d1:36:58:f9:48:43:64:b3:66:59:96:37:1f:02:68:68:e8:
         71:41:26:1e:42:16:82:22:a5:90:de:db:4a:42:aa:25:a4:8c:
         70:e8:8f:db:cf:54:20:11:16:d6:4a:bf:64:00:b7:9d:10:2e:
         f3:2a:27:4b:ba:23:ba:47:aa:b4:d4:ad:6a:84:db:7a:62:d7:
         c3:80:36:39:3c:82:73:f4:58:c7:9b:0f:1b:df:35:35:8b:c0:
         20:8a:7a:76:34:72:85:08:03:3d:fa:07:1d:7b:9f:b9:47:06:
         2a:85:97:03:f0:69:cb:52:94:37:01:19:8a:f3:7a:d4:4e:7f:
         68:b3:b0:17:ea:be:de:cb:01:7d:62:51:f8:24:e7:ad:73:5b:
         a8:e0:62:9e:df:76:05:03:84:c5:9a:3a:38:c3:2c:a9:08:26:
         f7:f9:08:39:5d:37:28:af:38:9e:7e:0a:96:32:08:50:3d:91:
         9f:67:89:ce:7a:3b:93:23:19:f6:1a:f9:1b:a9:59:69:de:ec:
         58:63:8e:99:49:16:d8:50:13:0e:33:98:e4:ec:1d:60:f5:f6:
         8b:b2:3e:6b:8b:dc:77:ea:52:20:19:9d:c1:04:a8:ff:4d:70:
         8e:61:54:83:7e:12:ce:1a:c2:f4:85:a1:8b:8f:43:8d:4a:f5:
         f8:6a:30:58
-----BEGIN CERTIFICATE-----
MIIFPDCCBCSgAwIBAgIBAzANBgkqhkiG9w0BAQsFADCBpzELMAkGA1UEBhMCSVQx
DjAMBgNVBAgTBUl0YWx5MQ8wDQYDVQQHEwZUb3Jpbm8xDDAKBgNVBAoTA0hCUjEd
MBsGA1UECxMUTXlPcmdhbml6YXRpb25hbFVuaXQxEzARBgNVBAMTCk9wZW5WUE4t
Q0ExEDAOBgNVBCkTB0Vhc3lSU0ExIzAhBgkqhkiG9w0BCQEWFGNlc2FyZS5wZWNA
Z21haWwuY29tMB4XDTE4MDMyMTE0MjEzMFoXDTI4MDMxODE0MjEzMFowgaQxCzAJ
BgNVBAYTAklUMQ4wDAYDVQQIEwVJdGFseTEPMA0GA1UEBxMGVG9yaW5vMQwwCgYD
VQQKEwNIQlIxHTAbBgNVBAsTFE15T3JnYW5pemF0aW9uYWxVbml0MRAwDgYDVQQD
EwdjbGllbnQyMRAwDgYDVQQpEwdFYXN5UlNBMSMwIQYJKoZIhvcNAQkBFhRjZXNh
cmUucGVjQGdtYWlsLmNvbTCCASIwDQYJKoZIhvcNAQEBBQADggEPADCCAQoCggEB
ANb4U8u+DLRhLk2WePmaV8DfvFdm5LmQ9W3qFuh7sZxcO8j9opPqqI5rPtvvxaXk
N2JyxQVc75Qcq+mf9j10KwMNncwlgoKbIQ/m4k4KF3cpM4UVMqvRuyjtcBgIIFTR
T8KqG6KQf62b6sZ9AbHBlEfVdE+jmTwU77WaX5jZ+V0waFtypXsGCUyqGWVjOSGo
Mw2BLQy9G9VpfRH4msxgFjd/VCLaGsDcwD9rADQ7wakZi3wXqv3vX8/RizZWDEcz
8C4cm4G8lQCCNNMTJS8LuTPuWrn3xr9qvwDseqbIB1EYYEf7p0VF3NT9nfAzedbx
L6GdwittwiWTy3qh164ikO0CAwEAAaOCAXIwggFuMAkGA1UdEwQCMAAwLQYJYIZI
AYb4QgENBCAWHkVhc3ktUlNBIEdlbmVyYXRlZCBDZXJ0aWZpY2F0ZTAdBgNVHQ4E
FgQUp2IvPkYsvucSHifZS0HmZY9yLGIwgdwGA1UdIwSB1DCB0YAU1ClSzcsnzs/i
8zJJ/CUSF3wTusShga2kgaowgacxCzAJBgNVBAYTAklUMQ4wDAYDVQQIEwVJdGFs
eTEPMA0GA1UEBxMGVG9yaW5vMQwwCgYDVQQKEwNIQlIxHTAbBgNVBAsTFE15T3Jn
YW5pemF0aW9uYWxVbml0MRMwEQYDVQQDEwpPcGVuVlBOLUNBMRAwDgYDVQQpEwdF
YXN5UlNBMSMwIQYJKoZIhvcNAQkBFhRjZXNhcmUucGVjQGdtYWlsLmNvbYIJALgG
zcJxK/RgMBMGA1UdJQQMMAoGCCsGAQUFBwMCMAsGA1UdDwQEAwIHgDASBgNVHREE
CzAJggdjbGllbnQyMA0GCSqGSIb3DQEBCwUAA4IBAQDE0TZY+UhDZLNmWZY3HwJo
aOhxQSYeQhaCIqWQ3ttKQqolpIxw6I/bz1QgERbWSr9kALedEC7zKidLuiO6R6q0
1K1qhNt6YtfDgDY5PIJz9FjHmw8b3zU1i8Aginp2NHKFCAM9+gcde5+5RwYqhZcD
8GnLUpQ3ARmK83rUTn9os7AX6r7eywF9YlH4JOetc1uo4GKe33YFA4TFmjo4wyyp
CCb3+Qg5XTcorziefgqWMghQPZGfZ4nOejuTIxn2GvkbqVlp3uxYY46ZSRbYUBMO
M5jk7B1g9faLsj5ri9x36lIgGZ3BBKj/TXCOYVSDfhLOGsL0haGLj0ONSvX4ajBY
-----END CERTIFICATE-----
